target datalayout = "e-m:e-p270:32:32-p271:32:32-p272:64:64-i64:64-i128:128-f80:128-n8:16:32:64-S128"
target triple = "x86_64-pc-linux-gnu"

%struct.sigaction = type { %union.anon, %struct.__sigset_t, i32, ptr }
%union.anon = type { ptr }
%struct.__sigset_t = type { [16 x i64] }

; Function Attrs: mustprogress nounwind uwtable
define noundef zeroext i1 @_ZN6google31IsFailureSignalHandlerInstalledEv() #2 {
  %1 = alloca i1, align 1
  %2 = alloca %struct.sigaction, align 8
  %3 = alloca i32, align 4
  call void @llvm.lifetime.start.p0(i64 152, ptr %2) #18
  call void @llvm.memset.p0.i64(ptr align 8 %2, i8 0, i64 152, i1 false)
  %4 = getelementptr inbounds nuw %struct.sigaction, ptr %2, i32 0, i32 1
  %5 = call i32 @sigemptyset(ptr noundef %4) #18
  %6 = call i32 @sigaction(i32 noundef 6, ptr noundef null, ptr noundef %2) #18
  %7 = getelementptr inbounds nuw %struct.sigaction, ptr %2, i32 0, i32 0
  %8 = load ptr, ptr %7, align 8, !tbaa !51
  %9 = icmp eq ptr %8, @_ZN6google12_GLOBAL__N_120FailureSignalHandlerEiP9siginfo_tPv
  br i1 %9, label %10, label %11

10:                                               ; preds = %0
  store i1 true, ptr %1, align 1
  store i32 1, ptr %3, align 4
  br label %12

11:                                               ; preds = %0
  store i1 false, ptr %1, align 1
  store i32 1, ptr %3, align 4
  br label %12

12:                                               ; preds = %11, %10
  call void @llvm.lifetime.end.p0(i64 152, ptr %2) #18
  %13 = load i1, ptr %1, align 1
  ret i1 %13
}