; Function Attrs: mustprogress nounwind uwtable
define noundef zeroext i1 @_ZN6google31IsFailureSignalHandlerInstalledEv() local_unnamed_addr #2 {
  %1 = alloca %struct.sigaction, align 8
  call void @llvm.lifetime.start.p0(i64 152, ptr nonnull %1) #23
  call void @llvm.memset.p0.i64(ptr noundef nonnull align 8 dereferenceable(152) %1, i8 0, i64 152, i1 false)
  %2 = getelementptr inbounds nuw i8, ptr %1, i64 8
  %3 = call i32 @sigemptyset(ptr noundef nonnull %2) #23
  %4 = call i32 @sigaction(i32 noundef 6, ptr noundef null, ptr noundef nonnull %1) #23
  %5 = load ptr, ptr %1, align 8, !tbaa !39
  %6 = icmp eq ptr %5, @_ZN6google12_GLOBAL__N_120FailureSignalHandlerEiP9siginfo_tPv
  call void @llvm.lifetime.end.p0(i64 152, ptr nonnull %1) #23
  ret i1 %6
}